target datalayout = "e-m:e-p270:32:32-p271:32:32-p272:64:64-i64:64-i128:128-f80:128-n8:16:32:64-S128"
target triple = "x86_64-unknown-linux-gnu"

%"class.v8::IndirectHandleBase" = type { ptr }
%"class.v8::Global.0" = type { %"class.v8::PersistentBase.1" }
%"class.v8::PersistentBase.1" = type { %"class.v8::IndirectHandleBase" }
%"class.v8impl::RefTracker" = type { ptr, ptr, ptr }
%"class.v8impl::Finalizer" = type { ptr, ptr, ptr, ptr, ptr }
%"class.v8impl::RefBase" = type { %"class.v8impl::TrackedFinalizer", i32, i32 }
%"class.v8impl::TrackedFinalizer" = type { %"class.v8impl::Finalizer", %"class.v8impl::RefTracker" }
%"class.v8impl::Reference" = type <{ %"class.v8impl::RefBase", %"class.v8::Global.0", i8, [7 x i8] }>

; Function Attrs: mustprogress nounwind uwtable
define dso_local void @_ZN6v8impl9Reference7SetWeakEv(ptr noundef nonnull align 8 dereferenceable(81) %this) #4 align 2 {
entry:
  %this.addr.i11 = alloca ptr, align 8
  %this.addr.i9 = alloca ptr, align 8
  %this.addr.i7 = alloca ptr, align 8
  %this.addr.i5 = alloca ptr, align 8
  %parameter.addr.i = alloca ptr, align 8
  %callback.addr.i = alloca ptr, align 8
  %type.addr.i = alloca i32, align 4
  %this.addr.i3 = alloca ptr, align 8
  %this.addr.i = alloca ptr, align 8
  %this.addr = alloca ptr, align 8
  store ptr %this, ptr %this.addr, align 8
  %this1 = load ptr, ptr %this.addr, align 8
  %can_be_weak_ = getelementptr inbounds %"class.v8impl::Reference", ptr %this1, i32 0, i32 2
  %0 = load i8, ptr %can_be_weak_, align 8
  %tobool = trunc i8 %0 to i1
  br i1 %tobool, label %if.then, label %if.else

if.then:                                          ; preds = %entry
  %persistent_ = getelementptr inbounds %"class.v8impl::Reference", ptr %this1, i32 0, i32 1
  store ptr %persistent_, ptr %this.addr.i5, align 8
  store ptr %this1, ptr %parameter.addr.i, align 8
  store ptr @_ZN6v8impl9Reference12WeakCallbackERKN2v816WeakCallbackInfoIS0_EE, ptr %callback.addr.i, align 8
  store i32 0, ptr %type.addr.i, align 4
  %this1.i6 = load ptr, ptr %this.addr.i5, align 8
  store ptr %this1.i6, ptr %this.addr.i7, align 8
  %this1.i8 = load ptr, ptr %this.addr.i7, align 8
  %1 = load ptr, ptr %this1.i8, align 8
  %2 = load ptr, ptr %parameter.addr.i, align 8
  %3 = load ptr, ptr %callback.addr.i, align 8
  %4 = load i32, ptr %type.addr.i, align 4
  call void @_ZN2v812api_internal8MakeWeakEPmPvPFvRKNS_16WeakCallbackInfoIvEEENS_16WeakCallbackTypeE(ptr noundef %1, ptr noundef %2, ptr noundef %3, i32 noundef %4) #3
  br label %if.end

if.else:                                          ; preds = %entry
  %persistent_2 = getelementptr inbounds %"class.v8impl::Reference", ptr %this1, i32 0, i32 1
  store ptr %persistent_2, ptr %this.addr.i, align 8
  %this1.i = load ptr, ptr %this.addr.i, align 8
  store ptr %this1.i, ptr %this.addr.i3, align 8
  %this1.i4 = load ptr, ptr %this.addr.i3, align 8
  %5 = load ptr, ptr %this1.i4, align 8
  %cmp.i = icmp eq ptr %5, null
  br i1 %cmp.i, label %if.then.i, label %if.end.i

if.then.i:                                        ; preds = %if.else
  br label %_ZN2v814PersistentBaseINS_5ValueEE5ResetEv.exit

if.end.i:                                         ; preds = %if.else
  store ptr %this1.i, ptr %this.addr.i9, align 8
  %this1.i10 = load ptr, ptr %this.addr.i9, align 8
  %6 = load ptr, ptr %this1.i10, align 8
  call void @_ZN2v812api_internal13DisposeGlobalEPm(ptr noundef %6) #3
  store ptr %this1.i, ptr %this.addr.i11, align 8
  %this1.i12 = load ptr, ptr %this.addr.i11, align 8
  store ptr null, ptr %this1.i12, align 8
  br label %_ZN2v814PersistentBaseINS_5ValueEE5ResetEv.exit

_ZN2v814PersistentBaseINS_5ValueEE5ResetEv.exit:  ; preds = %if.end.i, %if.then.i
  br label %if.end

if.end:                                           ; preds = %_ZN2v814PersistentBaseINS_5ValueEE5ResetEv.exit, %if.then
  ret void
}