; Function Attrs: mustprogress nounwind uwtable
define dso_local void @_ZN6v8impl9Reference7SetWeakEv(ptr noundef nonnull align 8 dereferenceable(81) %this) local_unnamed_addr #3 align 2 {
entry:
  %can_be_weak_ = getelementptr inbounds i8, ptr %this, i64 80
  %0 = load i8, ptr %can_be_weak_, align 8
  %1 = and i8 %0, 1
  %tobool.not = icmp eq i8 %1, 0
  %persistent_2 = getelementptr inbounds i8, ptr %this, i64 72
  %2 = load ptr, ptr %persistent_2, align 8
  br i1 %tobool.not, label %if.else, label %if.then

if.then:                                          ; preds = %entry
  tail call void @_ZN2v812api_internal8MakeWeakEPmPvPFvRKNS_16WeakCallbackInfoIvEEENS_16WeakCallbackTypeE(ptr noundef %2, ptr noundef nonnull %this, ptr noundef nonnull @_ZN6v8impl9Reference12WeakCallbackERKN2v816WeakCallbackInfoIS0_EE, i32 noundef 0) #24
  br label %if.end

if.else:                                          ; preds = %entry
  %cmp.i = icmp eq ptr %2, null
  br i1 %cmp.i, label %if.end, label %if.end.i

if.end.i:                                         ; preds = %if.else
  tail call void @_ZN2v812api_internal13DisposeGlobalEPm(ptr noundef nonnull %2) #24
  store ptr null, ptr %persistent_2, align 8
  br label %if.end

if.end:                                           ; preds = %if.end.i, %if.else, %if.then
  ret void
}